; ModuleID = 'bench/quantlib/original/version.ll'
source_filename = "bench/quantlib/original/version.ll"
target datalayout = "e-m:e-p270:32:32-p271:32:32-p272:64:64-i64:64-i128:128-f80:128-n8:16:32:64-S128"
target triple = "x86_64-unknown-linux-gnu"

; Function Attrs: mustprogress nofree noinline norecurse nosync nounwind willreturn memory(none) uwtable
define noundef i64 @_ZN8QuantLib20compiledBoostVersionEv() local_unnamed_addr #0 {
entry:
  ret i64 108500
}


!llvm.module.flags = !{!0, !1, !2}

!0 = !{i32 1, !"wchar_size", i32 4}
!1 = !{i32 8, !"PIC Level", i32 2}
!2 = !{i32 7, !"uwtable", i32 2}
